target datalayout = "e-m:e-p270:32:32-p271:32:32-p272:64:64-i64:64-i128:128-f80:128-n8:16:32:64-S128"
target triple = "x86_64-pc-linux-gnu"

%struct._zval_struct = type { %union._zend_value, %union.anon, %union.anon.2 }
%union._zend_value = type { i64 }
%union.anon = type { i32 }
%union.anon.2 = type { i32 }
%struct._zend_executor_globals = type { %struct._zval_struct, %struct._zval_struct, [32 x ptr], ptr, ptr, %struct._zend_array, %struct._zend_array, ptr, i32, i32, ptr, ptr, ptr, ptr, ptr, ptr, i64, ptr, ptr, i32, i32, i64, i32, i32, i32, i8, i8, %struct.zend_atomic_bool_s, %struct.zend_atomic_bool_s, ptr, i64, ptr, ptr, %struct._zend_array, %struct._zend_array, i32, i8, %struct._zval_struct, %struct._zval_struct, %struct._zend_stack, %struct._zend_stack, %struct._zend_stack, ptr, i32, i32, i64, ptr, ptr, ptr, %struct._zend_objects_store, ptr, ptr, ptr, [3 x %struct._zend_op], ptr, i8, i8, i64, i32, i32, ptr, [16 x %struct._HashTableIterator], ptr, %union._zend_function, %struct._zend_op, %struct._zend_array, i64, %struct.zend_get_gc_buffer, ptr, ptr, ptr, i64, i8, i32, ptr, ptr, i64, %struct._zend_call_stack, i64, i64, [6 x ptr] }
%struct.zend_atomic_bool_s = type { i8 }
%struct._zend_stack = type { i32, i32, i32, ptr }
%struct._zend_objects_store = type { ptr, i32, i32, i32 }
%struct._HashTableIterator = type { ptr, i32, i32 }
%union._zend_function = type { %struct._zend_op_array }
%struct._zend_op_array = type { i8, [3 x i8], i32, ptr, ptr, ptr, i32, i32, ptr, ptr, ptr, ptr, i32, i32, i32, i32, ptr, ptr, ptr, ptr, ptr, i32, i32, ptr, ptr, ptr, i32, i32, i32, i32, ptr, ptr, [6 x ptr] }
%struct._zend_op = type { ptr, %union._znode_op, %union._znode_op, %union._znode_op, i32, i32, i8, i8, i8, i8 }
%union._znode_op = type { i32 }
%struct._zend_array = type { %struct._zend_refcounted_h, %union.anon.4, i32, %union.anon.6, i32, i32, i32, i32, i64, ptr }
%struct._zend_refcounted_h = type { i32, %union.anon.3 }
%union.anon.3 = type { i32 }
%union.anon.4 = type { i32 }
%union.anon.6 = type { ptr }
%struct.zend_get_gc_buffer = type { ptr, ptr, ptr }
%struct._zend_call_stack = type { ptr, i64 }
%struct._zend_string = type { %struct._zend_refcounted_h, i64, i64, [1 x i8] }

@executor_globals = external global %struct._zend_executor_globals, align 8
@.str.21 = private unnamed_addr constant [19 x i8] c"During class fetch\00", align 1
@.str.22 = private unnamed_addr constant [25 x i8] c"Interface \22%s\22 not found\00", align 1
@.str.23 = private unnamed_addr constant [21 x i8] c"Trait \22%s\22 not found\00", align 1
@.str.24 = private unnamed_addr constant [21 x i8] c"Class \22%s\22 not found\00", align 1

; Function Attrs: nounwind uwtable
define internal void @report_class_fetch_error(ptr noundef %0, i32 noundef %1) #0 {
  %3 = alloca ptr, align 8
  %4 = alloca i32, align 4
  store ptr %0, ptr %3, align 8
  store i32 %1, ptr %4, align 4
  %5 = load i32, ptr %4, align 4
  %6 = and i32 %5, 256
  %7 = icmp ne i32 %6, 0
  br i1 %7, label %8, label %9

8:                                                ; preds = %2
  br label %42

9:                                                ; preds = %2
  %10 = load ptr, ptr getelementptr inbounds (%struct._zend_executor_globals, ptr @executor_globals, i32 0, i32 50), align 8
  %11 = icmp ne ptr %10, null
  br i1 %11, label %12, label %18

12:                                               ; preds = %9
  %13 = load i32, ptr %4, align 4
  %14 = and i32 %13, 512
  %15 = icmp ne i32 %14, 0
  br i1 %15, label %17, label %16

16:                                               ; preds = %12
  call void (ptr, ...) @zend_exception_uncaught_error(ptr noundef @.str.21) #16
  unreachable

17:                                               ; preds = %12
  br label %42

18:                                               ; preds = %9
  %19 = load i32, ptr %4, align 4
  %20 = and i32 %19, 15
  %21 = icmp eq i32 %20, 5
  br i1 %21, label %22, label %27

22:                                               ; preds = %18
  %23 = load i32, ptr %4, align 4
  %24 = load ptr, ptr %3, align 8
  %25 = getelementptr inbounds %struct._zend_string, ptr %24, i32 0, i32 3
  %26 = getelementptr inbounds [1 x i8], ptr %25, i64 0, i64 0
  call void (i32, ptr, ptr, ...) @zend_throw_or_error(i32 noundef %23, ptr noundef null, ptr noundef @.str.22, ptr noundef %26)
  br label %42

27:                                               ; preds = %18
  %28 = load i32, ptr %4, align 4
  %29 = and i32 %28, 15
  %30 = icmp eq i32 %29, 6
  br i1 %30, label %31, label %36

31:                                               ; preds = %27
  %32 = load i32, ptr %4, align 4
  %33 = load ptr, ptr %3, align 8
  %34 = getelementptr inbounds %struct._zend_string, ptr %33, i32 0, i32 3
  %35 = getelementptr inbounds [1 x i8], ptr %34, i64 0, i64 0
  call void (i32, ptr, ptr, ...) @zend_throw_or_error(i32 noundef %32, ptr noundef null, ptr noundef @.str.23, ptr noundef %35)
  br label %41

36:                                               ; preds = %27
  %37 = load i32, ptr %4, align 4
  %38 = load ptr, ptr %3, align 8
  %39 = getelementptr inbounds %struct._zend_string, ptr %38, i32 0, i32 3
  %40 = getelementptr inbounds [1 x i8], ptr %39, i64 0, i64 0
  call void (i32, ptr, ptr, ...) @zend_throw_or_error(i32 noundef %37, ptr noundef null, ptr noundef @.str.24, ptr noundef %40)
  br label %41

41:                                               ; preds = %36, %31
  br label %42

42:                                               ; preds = %41, %22, %17, %8
  ret void
}

; Function Attrs: nounwind uwtable
define ptr @zend_fetch_class_by_name(ptr noundef %0, ptr noundef %1, i32 noundef %2) #0 {
  %4 = alloca ptr, align 8
  %5 = alloca ptr, align 8
  %6 = alloca ptr, align 8
  %7 = alloca i32, align 4
  %8 = alloca ptr, align 8
  store ptr %0, ptr %5, align 8
  store ptr %1, ptr %6, align 8
  store i32 %2, ptr %7, align 4
  %9 = load ptr, ptr %5, align 8
  %10 = load ptr, ptr %6, align 8
  %11 = load i32, ptr %7, align 4
  %12 = call ptr @zend_lookup_class_ex(ptr noundef %9, ptr noundef %10, i32 noundef %11)
  store ptr %12, ptr %8, align 8
  %13 = load ptr, ptr %8, align 8
  %14 = icmp ne ptr %13, null
  br i1 %14, label %18, label %15

15:                                               ; preds = %3
  %16 = load ptr, ptr %5, align 8
  %17 = load i32, ptr %7, align 4
  call void @report_class_fetch_error(ptr noundef %16, i32 noundef %17)
  store ptr null, ptr %4, align 8
  br label %20

18:                                               ; preds = %3
  %19 = load ptr, ptr %8, align 8
  store ptr %19, ptr %4, align 8
  br label %20

20:                                               ; preds = %18, %15
  %21 = load ptr, ptr %4, align 8
  ret ptr %21
}