; Function Attrs: nounwind uwtable
define ptr @zend_fetch_class_by_name(ptr noundef %0, ptr noundef %1, i32 noundef %2) local_unnamed_addr #0 {
  %4 = tail call ptr @zend_lookup_class_ex(ptr noundef %0, ptr noundef %1, i32 noundef %2)
  %.not = icmp eq ptr %4, null
  %5 = and i32 %2, 256
  %.not.i = icmp eq i32 %5, 0
  %or.cond = and i1 %.not.i, %.not
  br i1 %or.cond, label %6, label %report_class_fetch_error.exit

6:                                                ; preds = %3
  %7 = load ptr, ptr getelementptr inbounds (%struct._zend_executor_globals, ptr @executor_globals, i64 0, i32 50), align 8
  %.not9.i = icmp eq ptr %7, null
  br i1 %.not9.i, label %.sink.split.i, label %8

8:                                                ; preds = %6
  %9 = and i32 %2, 512
  %.not10.i = icmp eq i32 %9, 0
  br i1 %.not10.i, label %10, label %report_class_fetch_error.exit

10:                                               ; preds = %8
  tail call void (ptr, ...) @zend_exception_uncaught_error(ptr noundef nonnull @.str.21) #27
  unreachable

.sink.split.i:                                    ; preds = %6
  %11 = and i32 %2, 15
  %12 = getelementptr inbounds i8, ptr %0, i64 24
  %switch.selectcmp.i = icmp eq i32 %11, 6
  %switch.select.i = select i1 %switch.selectcmp.i, ptr @.str.23, ptr @.str.24
  %switch.selectcmp11.i = icmp eq i32 %11, 5
  %switch.select12.i = select i1 %switch.selectcmp11.i, ptr @.str.22, ptr %switch.select.i
  tail call void (i32, ptr, ptr, ...) @zend_throw_or_error(i32 noundef %2, ptr poison, ptr noundef nonnull %switch.select12.i, ptr noundef nonnull %12)
  br label %report_class_fetch_error.exit

report_class_fetch_error.exit:                    ; preds = %.sink.split.i, %8, %3
  ret ptr %4
}